target datalayout = "e-m:e-p270:32:32-p271:32:32-p272:64:64-i64:64-i128:128-f80:128-n8:16:32:64-S128"
target triple = "x86_64-pc-linux-gnu"

%struct.config_generic = type { ptr, i32, i32, ptr, ptr, i32, i32, i32, i32, i32, i32, i32, i32, i32, ptr, ptr, %struct.dlist_node, %struct.slist_node, %struct.slist_node, ptr, ptr, i32 }
%struct.dlist_node = type { ptr, ptr }
%struct.slist_node = type { ptr }
%struct.FunctionCallInfoBaseData = type { ptr, ptr, ptr, i32, i8, i16, [0 x %struct.NullableDatum] }
%struct.NullableDatum = type { i64, i8 }

@.str.22 = private unnamed_addr constant [8 x i8] c"EXPLAIN\00", align 1
@.str.23 = private unnamed_addr constant [9 x i8] c"NO_RESET\00", align 1
@.str.24 = private unnamed_addr constant [13 x i8] c"NO_RESET_ALL\00", align 1
@.str.25 = private unnamed_addr constant [12 x i8] c"NO_SHOW_ALL\00", align 1
@.str.26 = private unnamed_addr constant [14 x i8] c"NOT_IN_SAMPLE\00", align 1
@.str.27 = private unnamed_addr constant [17 x i8] c"RUNTIME_COMPUTED\00", align 1

; Function Attrs: inlinehint nounwind uwtable
define internal i64 @PointerGetDatum(ptr noundef %0) #6 {
  %2 = alloca ptr, align 8
  store ptr %0, ptr %2, align 8
  %3 = load ptr, ptr %2, align 8
  %4 = ptrtoint ptr %3 to i64
  ret i64 %4
}

; Function Attrs: inlinehint nounwind uwtable
define internal ptr @DatumGetPointer(i64 noundef %0) #6 {
  %2 = alloca i64, align 8
  store i64 %0, ptr %2, align 8
  %3 = load i64, ptr %2, align 8
  %4 = inttoptr i64 %3 to ptr
  ret ptr %4
}

; Function Attrs: nounwind uwtable
define dso_local i64 @pg_settings_get_flags(ptr noundef %0) #0 {
  %2 = alloca i64, align 8
  %3 = alloca ptr, align 8
  %4 = alloca ptr, align 8
  %5 = alloca ptr, align 8
  %6 = alloca i32, align 4
  %7 = alloca [6 x i64], align 16
  %8 = alloca ptr, align 8
  %9 = alloca i32, align 4
  store ptr %0, ptr %3, align 8
  call void @llvm.lifetime.start.p0(i64 8, ptr %4) #7
  %10 = load ptr, ptr %3, align 8
  %11 = getelementptr inbounds nuw %struct.FunctionCallInfoBaseData, ptr %10, i32 0, i32 6
  %12 = getelementptr inbounds [0 x %struct.NullableDatum], ptr %11, i64 0, i64 0
  %13 = getelementptr inbounds nuw %struct.NullableDatum, ptr %12, i32 0, i32 0
  %14 = load i64, ptr %13, align 8
  %15 = call ptr @DatumGetPointer(i64 noundef %14)
  %16 = call ptr @text_to_cstring(ptr noundef %15)
  store ptr %16, ptr %4, align 8
  call void @llvm.lifetime.start.p0(i64 8, ptr %5) #7
  call void @llvm.lifetime.start.p0(i64 4, ptr %6) #7
  store i32 0, ptr %6, align 4
  call void @llvm.lifetime.start.p0(i64 48, ptr %7) #7
  call void @llvm.lifetime.start.p0(i64 8, ptr %8) #7
  %17 = load ptr, ptr %4, align 8
  %18 = call ptr @find_option(ptr noundef %17, i1 noundef zeroext false, i1 noundef zeroext true, i32 noundef 21)
  store ptr %18, ptr %5, align 8
  %19 = load ptr, ptr %5, align 8
  %20 = icmp eq ptr %19, null
  br i1 %20, label %21, label %27

21:                                               ; preds = %1
  br label %22

22:                                               ; preds = %21
  %23 = load ptr, ptr %3, align 8
  %24 = getelementptr inbounds nuw %struct.FunctionCallInfoBaseData, ptr %23, i32 0, i32 4
  store i8 1, ptr %24, align 4
  store i64 0, ptr %2, align 8
  store i32 1, ptr %9, align 4
  br label %111

25:                                               ; No predecessors!
  br label %26

26:                                               ; preds = %25
  br label %27

27:                                               ; preds = %26, %1
  %28 = load ptr, ptr %5, align 8
  %29 = getelementptr inbounds nuw %struct.config_generic, ptr %28, i32 0, i32 5
  %30 = load i32, ptr %29, align 8
  %31 = and i32 %30, 32
  %32 = icmp ne i32 %31, 0
  br i1 %32, label %33, label %40

33:                                               ; preds = %27
  %34 = call ptr @cstring_to_text(ptr noundef @.str.22)
  %35 = call i64 @PointerGetDatum(ptr noundef %34)
  %36 = load i32, ptr %6, align 4
  %37 = add i32 %36, 1
  store i32 %37, ptr %6, align 4
  %38 = sext i32 %36 to i64
  %39 = getelementptr inbounds [6 x i64], ptr %7, i64 0, i64 %38
  store i64 %35, ptr %39, align 8
  br label %40

40:                                               ; preds = %33, %27
  %41 = load ptr, ptr %5, align 8
  %42 = getelementptr inbounds nuw %struct.config_generic, ptr %41, i32 0, i32 5
  %43 = load i32, ptr %42, align 8
  %44 = and i32 %43, 8
  %45 = icmp ne i32 %44, 0
  br i1 %45, label %46, label %53

46:                                               ; preds = %40
  %47 = call ptr @cstring_to_text(ptr noundef @.str.23)
  %48 = call i64 @PointerGetDatum(ptr noundef %47)
  %49 = load i32, ptr %6, align 4
  %50 = add i32 %49, 1
  store i32 %50, ptr %6, align 4
  %51 = sext i32 %49 to i64
  %52 = getelementptr inbounds [6 x i64], ptr %7, i64 0, i64 %51
  store i64 %48, ptr %52, align 8
  br label %53

53:                                               ; preds = %46, %40
  %54 = load ptr, ptr %5, align 8
  %55 = getelementptr inbounds nuw %struct.config_generic, ptr %54, i32 0, i32 5
  %56 = load i32, ptr %55, align 8
  %57 = and i32 %56, 16
  %58 = icmp ne i32 %57, 0
  br i1 %58, label %59, label %66

59:                                               ; preds = %53
  %60 = call ptr @cstring_to_text(ptr noundef @.str.24)
  %61 = call i64 @PointerGetDatum(ptr noundef %60)
  %62 = load i32, ptr %6, align 4
  %63 = add i32 %62, 1
  store i32 %63, ptr %6, align 4
  %64 = sext i32 %62 to i64
  %65 = getelementptr inbounds [6 x i64], ptr %7, i64 0, i64 %64
  store i64 %61, ptr %65, align 8
  br label %66

66:                                               ; preds = %59, %53
  %67 = load ptr, ptr %5, align 8
  %68 = getelementptr inbounds nuw %struct.config_generic, ptr %67, i32 0, i32 5
  %69 = load i32, ptr %68, align 8
  %70 = and i32 %69, 4
  %71 = icmp ne i32 %70, 0
  br i1 %71, label %72, label %79

72:                                               ; preds = %66
  %73 = call ptr @cstring_to_text(ptr noundef @.str.25)
  %74 = call i64 @PointerGetDatum(ptr noundef %73)
  %75 = load i32, ptr %6, align 4
  %76 = add i32 %75, 1
  store i32 %76, ptr %6, align 4
  %77 = sext i32 %75 to i64
  %78 = getelementptr inbounds [6 x i64], ptr %7, i64 0, i64 %77
  store i64 %74, ptr %78, align 8
  br label %79

79:                                               ; preds = %72, %66
  %80 = load ptr, ptr %5, align 8
  %81 = getelementptr inbounds nuw %struct.config_generic, ptr %80, i32 0, i32 5
  %82 = load i32, ptr %81, align 8
  %83 = and i32 %82, 128
  %84 = icmp ne i32 %83, 0
  br i1 %84, label %85, label %92

85:                                               ; preds = %79
  %86 = call ptr @cstring_to_text(ptr noundef @.str.26)
  %87 = call i64 @PointerGetDatum(ptr noundef %86)
  %88 = load i32, ptr %6, align 4
  %89 = add i32 %88, 1
  store i32 %89, ptr %6, align 4
  %90 = sext i32 %88 to i64
  %91 = getelementptr inbounds [6 x i64], ptr %7, i64 0, i64 %90
  store i64 %87, ptr %91, align 8
  br label %92

92:                                               ; preds = %85, %79
  %93 = load ptr, ptr %5, align 8
  %94 = getelementptr inbounds nuw %struct.config_generic, ptr %93, i32 0, i32 5
  %95 = load i32, ptr %94, align 8
  %96 = and i32 %95, 16384
  %97 = icmp ne i32 %96, 0
  br i1 %97, label %98, label %105

98:                                               ; preds = %92
  %99 = call ptr @cstring_to_text(ptr noundef @.str.27)
  %100 = call i64 @PointerGetDatum(ptr noundef %99)
  %101 = load i32, ptr %6, align 4
  %102 = add i32 %101, 1
  store i32 %102, ptr %6, align 4
  %103 = sext i32 %101 to i64
  %104 = getelementptr inbounds [6 x i64], ptr %7, i64 0, i64 %103
  store i64 %100, ptr %104, align 8
  br label %105

105:                                              ; preds = %98, %92
  %106 = getelementptr inbounds [6 x i64], ptr %7, i64 0, i64 0
  %107 = load i32, ptr %6, align 4
  %108 = call ptr @construct_array_builtin(ptr noundef %106, i32 noundef %107, i32 noundef 25)
  store ptr %108, ptr %8, align 8
  %109 = load ptr, ptr %8, align 8
  %110 = call i64 @PointerGetDatum(ptr noundef %109)
  store i64 %110, ptr %2, align 8
  store i32 1, ptr %9, align 4
  br label %111

111:                                              ; preds = %105, %22
  call void @llvm.lifetime.end.p0(i64 8, ptr %8) #7
  call void @llvm.lifetime.end.p0(i64 48, ptr %7) #7
  call void @llvm.lifetime.end.p0(i64 4, ptr %6) #7
  call void @llvm.lifetime.end.p0(i64 8, ptr %5) #7
  call void @llvm.lifetime.end.p0(i64 8, ptr %4) #7
  %112 = load i64, ptr %2, align 8
  ret i64 %112
}