; Function Attrs: nounwind uwtable
define dso_local i64 @pg_settings_get_flags(ptr noundef captures(none) %0) local_unnamed_addr #0 {
  %2 = alloca [6 x i64], align 16
  %3 = getelementptr inbounds nuw i8, ptr %0, i64 32
  %4 = load i64, ptr %3, align 8
  %5 = inttoptr i64 %4 to ptr
  %6 = tail call ptr @text_to_cstring(ptr noundef %5) #7
  call void @llvm.lifetime.start.p0(i64 48, ptr nonnull %2) #7
  %7 = tail call ptr @find_option(ptr noundef %6, i1 noundef zeroext false, i1 noundef zeroext true, i32 noundef 21) #7
  %8 = icmp eq ptr %7, null
  br i1 %8, label %9, label %11

9:                                                ; preds = %1
  %10 = getelementptr inbounds nuw i8, ptr %0, i64 28
  store i8 1, ptr %10, align 4
  br label %66

11:                                               ; preds = %1
  %12 = getelementptr inbounds nuw i8, ptr %7, i64 32
  %13 = load i32, ptr %12, align 8
  %14 = and i32 %13, 32
  %.not = icmp eq i32 %14, 0
  br i1 %.not, label %18, label %15

15:                                               ; preds = %11
  %16 = tail call ptr @cstring_to_text(ptr noundef nonnull @.str.22) #7
  %17 = ptrtoint ptr %16 to i64
  store i64 %17, ptr %2, align 16
  %.pre = load i32, ptr %12, align 8
  br label %18

18:                                               ; preds = %15, %11
  %19 = phi i32 [ %.pre, %15 ], [ %13, %11 ]
  %.018 = phi i32 [ 1, %15 ], [ 0, %11 ]
  %20 = and i32 %19, 8
  %.not20 = icmp eq i32 %20, 0
  br i1 %.not20, label %27, label %21

21:                                               ; preds = %18
  %22 = tail call ptr @cstring_to_text(ptr noundef nonnull @.str.23) #7
  %23 = ptrtoint ptr %22 to i64
  %24 = add nuw nsw i32 %.018, 1
  %25 = zext nneg i32 %.018 to i64
  %26 = getelementptr inbounds nuw [6 x i64], ptr %2, i64 0, i64 %25
  store i64 %23, ptr %26, align 8
  %.pre25 = load i32, ptr %12, align 8
  br label %27

27:                                               ; preds = %21, %18
  %28 = phi i32 [ %.pre25, %21 ], [ %19, %18 ]
  %.1 = phi i32 [ %24, %21 ], [ %.018, %18 ]
  %29 = and i32 %28, 16
  %.not21 = icmp eq i32 %29, 0
  br i1 %.not21, label %36, label %30

30:                                               ; preds = %27
  %31 = tail call ptr @cstring_to_text(ptr noundef nonnull @.str.24) #7
  %32 = ptrtoint ptr %31 to i64
  %33 = add nuw nsw i32 %.1, 1
  %34 = zext nneg i32 %.1 to i64
  %35 = getelementptr inbounds nuw [6 x i64], ptr %2, i64 0, i64 %34
  store i64 %32, ptr %35, align 8
  %.pre26 = load i32, ptr %12, align 8
  br label %36

36:                                               ; preds = %30, %27
  %37 = phi i32 [ %.pre26, %30 ], [ %28, %27 ]
  %.2 = phi i32 [ %33, %30 ], [ %.1, %27 ]
  %38 = and i32 %37, 4
  %.not22 = icmp eq i32 %38, 0
  br i1 %.not22, label %45, label %39

39:                                               ; preds = %36
  %40 = tail call ptr @cstring_to_text(ptr noundef nonnull @.str.25) #7
  %41 = ptrtoint ptr %40 to i64
  %42 = add nuw nsw i32 %.2, 1
  %43 = zext nneg i32 %.2 to i64
  %44 = getelementptr inbounds nuw [6 x i64], ptr %2, i64 0, i64 %43
  store i64 %41, ptr %44, align 8
  %.pre27 = load i32, ptr %12, align 8
  br label %45

45:                                               ; preds = %39, %36
  %46 = phi i32 [ %.pre27, %39 ], [ %37, %36 ]
  %.3 = phi i32 [ %42, %39 ], [ %.2, %36 ]
  %47 = and i32 %46, 128
  %.not23 = icmp eq i32 %47, 0
  br i1 %.not23, label %54, label %48

48:                                               ; preds = %45
  %49 = tail call ptr @cstring_to_text(ptr noundef nonnull @.str.26) #7
  %50 = ptrtoint ptr %49 to i64
  %51 = add nuw nsw i32 %.3, 1
  %52 = zext nneg i32 %.3 to i64
  %53 = getelementptr inbounds nuw [6 x i64], ptr %2, i64 0, i64 %52
  store i64 %50, ptr %53, align 8
  %.pre28 = load i32, ptr %12, align 8
  br label %54

54:                                               ; preds = %48, %45
  %55 = phi i32 [ %.pre28, %48 ], [ %46, %45 ]
  %.4 = phi i32 [ %51, %48 ], [ %.3, %45 ]
  %56 = and i32 %55, 16384
  %.not24 = icmp eq i32 %56, 0
  br i1 %.not24, label %63, label %57

57:                                               ; preds = %54
  %58 = tail call ptr @cstring_to_text(ptr noundef nonnull @.str.27) #7
  %59 = ptrtoint ptr %58 to i64
  %60 = add nuw nsw i32 %.4, 1
  %61 = zext nneg i32 %.4 to i64
  %62 = getelementptr inbounds nuw [6 x i64], ptr %2, i64 0, i64 %61
  store i64 %59, ptr %62, align 8
  br label %63

63:                                               ; preds = %57, %54
  %.5 = phi i32 [ %60, %57 ], [ %.4, %54 ]
  %64 = call ptr @construct_array_builtin(ptr noundef nonnull %2, i32 noundef %.5, i32 noundef 25) #7
  %65 = ptrtoint ptr %64 to i64
  br label %66

66:                                               ; preds = %63, %9
  %.0 = phi i64 [ 0, %9 ], [ %65, %63 ]
  call void @llvm.lifetime.end.p0(i64 48, ptr nonnull %2) #7
  ret i64 %.0
}